; Function Attrs: mustprogress nofree norecurse nosync nounwind willreturn memory(argmem: write) uwtable
define void @_ZN7rocksdb11ReadOptionsC2Ebb(ptr nocapture noundef nonnull writeonly align 8 dereferenceable(154) %this, i1 noundef zeroext %_verify_checksums, i1 noundef zeroext %_fill_cache) unnamed_addr #8 align 2 personality ptr @__gxx_personality_v0 {
entry:
  %frombool = zext i1 %_verify_checksums to i8
  %frombool1 = zext i1 %_fill_cache to i8
  %rate_limiter_priority = getelementptr inbounds i8, ptr %this, i64 44
  tail call void @llvm.memset.p0.i64(ptr noundef nonnull align 8 dereferenceable(44) %this, i8 0, i64 44, i1 false)
  store i32 4, ptr %rate_limiter_priority, align 4
  %value_size_soft_limit = getelementptr inbounds i8, ptr %this, i64 48
  store i64 -1, ptr %value_size_soft_limit, align 8
  %_M_engaged.i.i.i.i = getelementptr inbounds i8, ptr %this, i64 64
  store i8 0, ptr %_M_engaged.i.i.i.i, align 8
  %verify_checksums = getelementptr inbounds i8, ptr %this, i64 72
  store i8 %frombool, ptr %verify_checksums, align 8
  %fill_cache = getelementptr inbounds i8, ptr %this, i64 73
  store i8 %frombool1, ptr %fill_cache, align 1
  %ignore_range_deletions = getelementptr inbounds i8, ptr %this, i64 74
  store i8 0, ptr %ignore_range_deletions, align 2
  %async_io = getelementptr inbounds i8, ptr %this, i64 75
  store i8 0, ptr %async_io, align 1
  %optimize_multiget_for_io = getelementptr inbounds i8, ptr %this, i64 76
  store i8 1, ptr %optimize_multiget_for_io, align 4
  %readahead_size = getelementptr inbounds i8, ptr %this, i64 80
  %auto_readahead_size = getelementptr inbounds i8, ptr %this, i64 152
  tail call void @llvm.memset.p0.i64(ptr noundef nonnull align 8 dereferenceable(72) %readahead_size, i8 0, i64 72, i1 false)
  store i8 1, ptr %auto_readahead_size, align 8
  %io_activity = getelementptr inbounds i8, ptr %this, i64 153
  store i8 10, ptr %io_activity, align 1
  ret void
}